; Function Attrs: mustprogress nofree norecurse nosync nounwind null_pointer_is_valid sspstrong willreturn memory(argmem: write) uwtable
define hidden void @BusmasterParserInit(ptr noundef initializes((8, 12)) %0) local_unnamed_addr #0 {
  %2 = getelementptr inbounds nuw i8, ptr %0, i64 8
  store i32 -1, ptr %2, align 8
  %3 = getelementptr inbounds nuw i8, ptr %0, i64 24
  store ptr %3, ptr %0, align 8
  store i8 0, ptr %3, align 8
  %4 = getelementptr inbounds nuw i8, ptr %0, i64 25
  store i8 0, ptr %4, align 1
  %5 = getelementptr i8, ptr %0, i64 7944
  %6 = getelementptr inbounds nuw i8, ptr %0, i64 8024
  store ptr %5, ptr %6, align 8
  ret void
}